; Function Attrs: mustprogress uwtable
define void @cvNot(ptr noundef %0, ptr noundef %1) local_unnamed_addr #0 personality ptr @__gxx_personality_v0 {
  %3 = alloca %"class.cv::utils::trace::details::Region", align 8
  %4 = alloca ptr, align 8
  %5 = alloca %"class.cv::Mat", align 8
  %6 = alloca %"class.cv::Mat", align 8
  %7 = alloca %"class.std::__cxx11::basic_string", align 8
  %8 = alloca %"class.std::allocator", align 1
  %9 = alloca %"class.cv::_InputArray", align 8
  %10 = alloca %"class.cv::_OutputArray", align 8
  call void @_ZN2cv10cvarrToMatEPKvbbiPNS_10AutoBufferIdLm136EEE(ptr dead_on_unwind nonnull writable sret(%"class.cv::Mat") align 8 %5, ptr noundef %0, i1 noundef zeroext false, i1 noundef zeroext true, i32 noundef 0, ptr noundef null)
  invoke void @_ZN2cv10cvarrToMatEPKvbbiPNS_10AutoBufferIdLm136EEE(ptr dead_on_unwind nonnull writable sret(%"class.cv::Mat") align 8 %6, ptr noundef %1, i1 noundef zeroext false, i1 noundef zeroext true, i32 noundef 0, ptr noundef null)
          to label %11 unwind label %21

11:                                               ; preds = %2
  %12 = getelementptr inbounds i8, ptr %5, i64 64
  %13 = getelementptr inbounds i8, ptr %6, i64 64
  %14 = call noundef zeroext i1 @_ZNK2cv7MatSizeeqERKS0_(ptr noundef nonnull align 8 dereferenceable(8) %12, ptr noundef nonnull align 8 dereferenceable(8) %13) #18
  br i1 %14, label %15, label %23

15:                                               ; preds = %11
  %16 = load i32, ptr %5, align 8
  %17 = load i32, ptr %6, align 8
  %18 = xor i32 %17, %16
  %19 = and i32 %18, 4095
  %20 = icmp eq i32 %19, 0
  br i1 %20, label %31, label %23

21:                                               ; preds = %2
  %22 = landingpad { ptr, i32 }
          cleanup
  br label %51

23:                                               ; preds = %15, %11
  call void @_ZNSaIcEC1Ev(ptr noundef nonnull align 1 dereferenceable(1) %8) #18
  invoke void @_ZNSt7__cxx1112basic_stringIcSt11char_traitsIcESaIcEEC1EPKcRKS3_(ptr noundef nonnull align 8 dereferenceable(32) %7, ptr noundef nonnull @.str.33, ptr noundef nonnull align 1 dereferenceable(1) %8)
          to label %24 unwind label %26

24:                                               ; preds = %23
  invoke void @_ZN2cv5errorEiRKNSt7__cxx1112basic_stringIcSt11char_traitsIcESaIcEEEPKcS9_i(i32 noundef -215, ptr noundef nonnull align 8 dereferenceable(32) %7, ptr noundef nonnull @__func__.cvNot, ptr noundef nonnull @.str.1, i32 noundef 1980) #19
          to label %25 unwind label %28

25:                                               ; preds = %24
  unreachable

26:                                               ; preds = %23
  %27 = landingpad { ptr, i32 }
          cleanup
  br label %30

28:                                               ; preds = %24
  %29 = landingpad { ptr, i32 }
          cleanup
  call void @_ZNSt7__cxx1112basic_stringIcSt11char_traitsIcESaIcEED1Ev(ptr noundef nonnull align 8 dereferenceable(32) %7) #18
  br label %30

30:                                               ; preds = %28, %26
  %.pn = phi { ptr, i32 } [ %29, %28 ], [ %27, %26 ]
  call void @_ZNSaIcED1Ev(ptr noundef nonnull align 1 dereferenceable(1) %8) #18
  br label %.body

31:                                               ; preds = %15
  %32 = getelementptr inbounds i8, ptr %9, i64 16
  store i32 0, ptr %32, align 8
  %33 = getelementptr inbounds i8, ptr %9, i64 20
  store i32 0, ptr %33, align 4
  store i32 16842752, ptr %9, align 8
  %34 = getelementptr inbounds i8, ptr %9, i64 8
  store ptr %5, ptr %34, align 8
  %35 = getelementptr inbounds i8, ptr %10, i64 8
  %36 = getelementptr inbounds i8, ptr %10, i64 16
  store i64 0, ptr %36, align 8
  store i32 33619968, ptr %10, align 8
  store ptr %6, ptr %35, align 8
  %37 = invoke noundef nonnull align 8 dereferenceable(24) ptr @_ZN2cv7noArrayEv()
          to label %38 unwind label %49

38:                                               ; preds = %31
  call void @llvm.lifetime.start.p0(i64 16, ptr nonnull %3)
  call void @llvm.lifetime.start.p0(i64 8, ptr nonnull %4)
  invoke void @_ZN2cv5utils5trace7details6RegionC1ERKNS3_21LocationStaticStorageE(ptr noundef nonnull align 8 dereferenceable(12) %3, ptr noundef nonnull align 8 dereferenceable(32) @_ZZN2cv11bitwise_notERKNS_11_InputArrayERKNS_12_OutputArrayES2_E25__cv_trace_location_fn386)
          to label %.noexc unwind label %49

.noexc:                                           ; preds = %38
  store ptr @_ZN2cv3hal5not8uEPKhmS2_mPhmiiPv, ptr %4, align 8
  invoke fastcc void @_ZN2cvL9binary_opERKNS_11_InputArrayES2_RKNS_12_OutputArrayES2_PKPFvPKhmS7_mPhmiiPvEbi(ptr noundef nonnull align 8 dereferenceable(24) %9, ptr noundef nonnull align 8 dereferenceable(24) %9, ptr noundef nonnull align 8 dereferenceable(24) %10, ptr noundef nonnull align 8 dereferenceable(24) %37, ptr noundef nonnull %4, i1 noundef zeroext true, i32 noundef 12)
          to label %39 unwind label %46

39:                                               ; preds = %.noexc
  %40 = getelementptr inbounds i8, ptr %3, i64 8
  %41 = load i32, ptr %40, align 8
  %.not.i.i = icmp eq i32 %41, 0
  br i1 %.not.i.i, label %48, label %42

42:                                               ; preds = %39
  invoke void @_ZN2cv5utils5trace7details6Region7destroyEv(ptr noundef nonnull align 8 dereferenceable(12) %3)
          to label %48 unwind label %43

43:                                               ; preds = %42
  %44 = landingpad { ptr, i32 }
          catch ptr null
  %45 = extractvalue { ptr, i32 } %44, 0
  call void @__clang_call_terminate(ptr %45) #17
  unreachable

46:                                               ; preds = %.noexc
  %47 = landingpad { ptr, i32 }
          cleanup
  call void @_ZN2cv5utils5trace7details6RegionD2Ev(ptr noundef nonnull align 8 dereferenceable(12) %3) #18
  br label %.body

48:                                               ; preds = %42, %39
  call void @llvm.lifetime.end.p0(i64 16, ptr nonnull %3)
  call void @llvm.lifetime.end.p0(i64 8, ptr nonnull %4)
  call void @_ZN2cv3MatD1Ev(ptr noundef nonnull align 8 dereferenceable(96) %6) #18
  call void @_ZN2cv3MatD1Ev(ptr noundef nonnull align 8 dereferenceable(96) %5) #18
  ret void

49:                                               ; preds = %38, %31
  %50 = landingpad { ptr, i32 }
          cleanup
  br label %.body

.body:                                            ; preds = %46, %49, %30
  %.pn8.pn = phi { ptr, i32 } [ %.pn, %30 ], [ %50, %49 ], [ %47, %46 ]
  call void @_ZN2cv3MatD1Ev(ptr noundef nonnull align 8 dereferenceable(96) %6) #18
  br label %51

51:                                               ; preds = %.body, %21
  %.pn8.pn.pn = phi { ptr, i32 } [ %.pn8.pn, %.body ], [ %22, %21 ]
  call void @_ZN2cv3MatD1Ev(ptr noundef nonnull align 8 dereferenceable(96) %5) #18
  resume { ptr, i32 } %.pn8.pn.pn
}